target datalayout = "e-m:e-p270:32:32-p271:32:32-p272:64:64-i64:64-i128:128-f80:128-n8:16:32:64-S128"
target triple = "x86_64-pc-linux-gnu"

; Function Attrs: nounwind uwtable
define ptr @stbi__resample_row_hv_2(ptr noundef %0, ptr noundef %1, ptr noundef %2, i32 noundef %3, i32 noundef %4) #0 {
  %6 = alloca ptr, align 8
  %7 = alloca ptr, align 8
  %8 = alloca ptr, align 8
  %9 = alloca ptr, align 8
  %10 = alloca i32, align 4
  %11 = alloca i32, align 4
  %12 = alloca i32, align 4
  %13 = alloca i32, align 4
  %14 = alloca i32, align 4
  %15 = alloca i32, align 4
  store ptr %0, ptr %7, align 8, !tbaa !7
  store ptr %1, ptr %8, align 8, !tbaa !7
  store ptr %2, ptr %9, align 8, !tbaa !7
  store i32 %3, ptr %10, align 4, !tbaa !9
  store i32 %4, ptr %11, align 4, !tbaa !9
  call void @llvm.lifetime.start.p0(i64 4, ptr %12) #13
  call void @llvm.lifetime.start.p0(i64 4, ptr %13) #13
  call void @llvm.lifetime.start.p0(i64 4, ptr %14) #13
  %16 = load i32, ptr %10, align 4, !tbaa !9
  %17 = icmp eq i32 %16, 1
  br i1 %17, label %18, label %37

18:                                               ; preds = %5
  %19 = load ptr, ptr %8, align 8, !tbaa !7
  %20 = getelementptr inbounds i8, ptr %19, i64 0
  %21 = load i8, ptr %20, align 1, !tbaa !23
  %22 = zext i8 %21 to i32
  %23 = mul nsw i32 3, %22
  %24 = load ptr, ptr %9, align 8, !tbaa !7
  %25 = getelementptr inbounds i8, ptr %24, i64 0
  %26 = load i8, ptr %25, align 1, !tbaa !23
  %27 = zext i8 %26 to i32
  %28 = add nsw i32 %23, %27
  %29 = add nsw i32 %28, 2
  %30 = ashr i32 %29, 2
  %31 = trunc i32 %30 to i8
  %32 = load ptr, ptr %7, align 8, !tbaa !7
  %33 = getelementptr inbounds i8, ptr %32, i64 1
  store i8 %31, ptr %33, align 1, !tbaa !23
  %34 = load ptr, ptr %7, align 8, !tbaa !7
  %35 = getelementptr inbounds i8, ptr %34, i64 0
  store i8 %31, ptr %35, align 1, !tbaa !23
  %36 = load ptr, ptr %7, align 8, !tbaa !7
  store ptr %36, ptr %6, align 8
  store i32 1, ptr %15, align 4
  br label %114

37:                                               ; preds = %5
  %38 = load ptr, ptr %8, align 8, !tbaa !7
  %39 = getelementptr inbounds i8, ptr %38, i64 0
  %40 = load i8, ptr %39, align 1, !tbaa !23
  %41 = zext i8 %40 to i32
  %42 = mul nsw i32 3, %41
  %43 = load ptr, ptr %9, align 8, !tbaa !7
  %44 = getelementptr inbounds i8, ptr %43, i64 0
  %45 = load i8, ptr %44, align 1, !tbaa !23
  %46 = zext i8 %45 to i32
  %47 = add nsw i32 %42, %46
  store i32 %47, ptr %14, align 4, !tbaa !9
  %48 = load i32, ptr %14, align 4, !tbaa !9
  %49 = add nsw i32 %48, 2
  %50 = ashr i32 %49, 2
  %51 = trunc i32 %50 to i8
  %52 = load ptr, ptr %7, align 8, !tbaa !7
  %53 = getelementptr inbounds i8, ptr %52, i64 0
  store i8 %51, ptr %53, align 1, !tbaa !23
  store i32 1, ptr %12, align 4, !tbaa !9
  br label %54

54:                                               ; preds = %99, %37
  %55 = load i32, ptr %12, align 4, !tbaa !9
  %56 = load i32, ptr %10, align 4, !tbaa !9
  %57 = icmp slt i32 %55, %56
  br i1 %57, label %58, label %102

58:                                               ; preds = %54
  %59 = load i32, ptr %14, align 4, !tbaa !9
  store i32 %59, ptr %13, align 4, !tbaa !9
  %60 = load ptr, ptr %8, align 8, !tbaa !7
  %61 = load i32, ptr %12, align 4, !tbaa !9
  %62 = sext i32 %61 to i64
  %63 = getelementptr inbounds i8, ptr %60, i64 %62
  %64 = load i8, ptr %63, align 1, !tbaa !23
  %65 = zext i8 %64 to i32
  %66 = mul nsw i32 3, %65
  %67 = load ptr, ptr %9, align 8, !tbaa !7
  %68 = load i32, ptr %12, align 4, !tbaa !9
  %69 = sext i32 %68 to i64
  %70 = getelementptr inbounds i8, ptr %67, i64 %69
  %71 = load i8, ptr %70, align 1, !tbaa !23
  %72 = zext i8 %71 to i32
  %73 = add nsw i32 %66, %72
  store i32 %73, ptr %14, align 4, !tbaa !9
  %74 = load i32, ptr %13, align 4, !tbaa !9
  %75 = mul nsw i32 3, %74
  %76 = load i32, ptr %14, align 4, !tbaa !9
  %77 = add nsw i32 %75, %76
  %78 = add nsw i32 %77, 8
  %79 = ashr i32 %78, 4
  %80 = trunc i32 %79 to i8
  %81 = load ptr, ptr %7, align 8, !tbaa !7
  %82 = load i32, ptr %12, align 4, !tbaa !9
  %83 = mul nsw i32 %82, 2
  %84 = sub nsw i32 %83, 1
  %85 = sext i32 %84 to i64
  %86 = getelementptr inbounds i8, ptr %81, i64 %85
  store i8 %80, ptr %86, align 1, !tbaa !23
  %87 = load i32, ptr %14, align 4, !tbaa !9
  %88 = mul nsw i32 3, %87
  %89 = load i32, ptr %13, align 4, !tbaa !9
  %90 = add nsw i32 %88, %89
  %91 = add nsw i32 %90, 8
  %92 = ashr i32 %91, 4
  %93 = trunc i32 %92 to i8
  %94 = load ptr, ptr %7, align 8, !tbaa !7
  %95 = load i32, ptr %12, align 4, !tbaa !9
  %96 = mul nsw i32 %95, 2
  %97 = sext i32 %96 to i64
  %98 = getelementptr inbounds i8, ptr %94, i64 %97
  store i8 %93, ptr %98, align 1, !tbaa !23
  br label %99

99:                                               ; preds = %58
  %100 = load i32, ptr %12, align 4, !tbaa !9
  %101 = add nsw i32 %100, 1
  store i32 %101, ptr %12, align 4, !tbaa !9
  br label %54, !llvm.loop !248

102:                                              ; preds = %54
  %103 = load i32, ptr %14, align 4, !tbaa !9
  %104 = add nsw i32 %103, 2
  %105 = ashr i32 %104, 2
  %106 = trunc i32 %105 to i8
  %107 = load ptr, ptr %7, align 8, !tbaa !7
  %108 = load i32, ptr %10, align 4, !tbaa !9
  %109 = mul nsw i32 %108, 2
  %110 = sub nsw i32 %109, 1
  %111 = sext i32 %110 to i64
  %112 = getelementptr inbounds i8, ptr %107, i64 %111
  store i8 %106, ptr %112, align 1, !tbaa !23
  %113 = load ptr, ptr %7, align 8, !tbaa !7
  store ptr %113, ptr %6, align 8
  store i32 1, ptr %15, align 4
  br label %114

114:                                              ; preds = %102, %18
  call void @llvm.lifetime.end.p0(i64 4, ptr %14) #13
  call void @llvm.lifetime.end.p0(i64 4, ptr %13) #13
  call void @llvm.lifetime.end.p0(i64 4, ptr %12) #13
  %115 = load ptr, ptr %6, align 8
  ret ptr %115
}