; Function Attrs: nofree norecurse nosync nounwind memory(argmem: readwrite) uwtable
define noundef ptr @stbi__resample_row_hv_2(ptr noundef returned writeonly captures(ret: address, provenance) initializes((0, 1)) %0, ptr noundef readonly captures(none) %1, ptr noundef readonly captures(none) %2, i32 noundef %3, i32 noundef %4) local_unnamed_addr #18 {
  %6 = icmp eq i32 %3, 1
  %7 = load i8, ptr %1, align 1, !tbaa !21
  %8 = load i8, ptr %2, align 1, !tbaa !21
  br i1 %6, label %9, label %18

9:                                                ; preds = %5
  %10 = zext i8 %7 to i16
  %11 = mul nuw nsw i16 %10, 3
  %12 = zext i8 %8 to i16
  %13 = add nuw nsw i16 %12, 2
  %14 = add nuw nsw i16 %13, %11
  %15 = lshr i16 %14, 2
  %16 = trunc nuw i16 %15 to i8
  %17 = getelementptr inbounds nuw i8, ptr %0, i64 1
  store i8 %16, ptr %17, align 1, !tbaa !21
  store i8 %16, ptr %0, align 1, !tbaa !21
  br label %52

18:                                               ; preds = %5
  %19 = zext i8 %7 to i32
  %20 = mul nuw nsw i32 %19, 3
  %21 = zext i8 %8 to i32
  %22 = add nuw nsw i32 %20, %21
  %23 = add nuw nsw i32 %22, 2
  %24 = lshr i32 %23, 2
  %25 = trunc nuw i32 %24 to i8
  store i8 %25, ptr %0, align 1, !tbaa !21
  %26 = icmp sgt i32 %3, 1
  br i1 %26, label %.lr.ph.preheader, label %._crit_edge

.lr.ph.preheader:                                 ; preds = %18
  %wide.trip.count = zext nneg i32 %3 to i64
  br label %.lr.ph

.lr.ph:                                           ; preds = %.lr.ph.preheader, %.lr.ph
  %indvars.iv = phi i64 [ 1, %.lr.ph.preheader ], [ %indvars.iv.next, %.lr.ph ]
  %.034 = phi i32 [ %22, %.lr.ph.preheader ], [ %34, %.lr.ph ]
  %27 = getelementptr inbounds nuw i8, ptr %1, i64 %indvars.iv
  %28 = load i8, ptr %27, align 1, !tbaa !21
  %29 = zext i8 %28 to i32
  %30 = mul nuw nsw i32 %29, 3
  %31 = getelementptr inbounds nuw i8, ptr %2, i64 %indvars.iv
  %32 = load i8, ptr %31, align 1, !tbaa !21
  %33 = zext i8 %32 to i32
  %34 = add nuw nsw i32 %30, %33
  %35 = mul nuw nsw i32 %.034, 3
  %36 = add nuw nsw i32 %35, 8
  %37 = add nuw nsw i32 %36, %34
  %38 = lshr i32 %37, 4
  %39 = trunc nuw i32 %38 to i8
  %40 = shl nuw nsw i64 %indvars.iv, 1
  %41 = getelementptr i8, ptr %0, i64 %40
  %42 = getelementptr i8, ptr %41, i64 -1
  store i8 %39, ptr %42, align 1, !tbaa !21
  %43 = mul nuw nsw i32 %34, 3
  %44 = add nuw nsw i32 %.034, 8
  %45 = add nuw nsw i32 %44, %43
  %46 = lshr i32 %45, 4
  %47 = trunc nuw i32 %46 to i8
  store i8 %47, ptr %41, align 1, !tbaa !21
  %indvars.iv.next = add nuw nsw i64 %indvars.iv, 1
  %exitcond.not = icmp eq i64 %indvars.iv.next, %wide.trip.count
  br i1 %exitcond.not, label %._crit_edge.loopexit, label %.lr.ph, !llvm.loop !240

._crit_edge.loopexit:                             ; preds = %.lr.ph
  %.pre = add nuw nsw i32 %34, 2
  %.pre36 = lshr i32 %.pre, 2
  %.pre38 = trunc nuw i32 %.pre36 to i8
  br label %._crit_edge

._crit_edge:                                      ; preds = %._crit_edge.loopexit, %18
  %.pre-phi39 = phi i8 [ %.pre38, %._crit_edge.loopexit ], [ %25, %18 ]
  %48 = shl nsw i32 %3, 1
  %49 = sext i32 %48 to i64
  %50 = getelementptr i8, ptr %0, i64 %49
  %51 = getelementptr i8, ptr %50, i64 -1
  store i8 %.pre-phi39, ptr %51, align 1, !tbaa !21
  br label %52

52:                                               ; preds = %._crit_edge, %9
  ret ptr %0
}